; Function Attrs: nounwind uwtable
define internal range(i32 -1, 1) i32 @H5D__btree_shared_free(ptr noundef %0) #0 {
  %2 = load i8, ptr @H5D_init_g, align 1, !tbaa !3, !range !7, !noundef !8
  %3 = trunc nuw i8 %2 to i1
  %4 = load i8, ptr @H5_libterm_g, align 1, !range !7
  %5 = trunc nuw i8 %4 to i1
  %6 = xor i1 %5, true
  %7 = select i1 %3, i1 true, i1 %6
  br i1 %7, label %8, label %18, !prof !9

8:                                                ; preds = %1
  %9 = getelementptr inbounds nuw i8, ptr %0, i64 72
  %10 = load ptr, ptr %9, align 8, !tbaa !47
  %11 = tail call ptr @H5FL_reg_free(ptr noundef nonnull @H5_H5O_layout_chunk_t_reg_free_list, ptr noundef %10) #15
  store ptr %11, ptr %9, align 8, !tbaa !47
  %12 = tail call i32 @H5B_shared_free(ptr noundef %0) #15
  %13 = icmp slt i32 %12, 0
  br i1 %13, label %14, label %18

14:                                               ; preds = %8
  %15 = load i64, ptr @H5E_DATASET_g, align 8, !tbaa !20
  %16 = load i64, ptr @H5E_CANTFREE_g, align 8, !tbaa !20
  %17 = tail call i32 (ptr, ptr, i32, i64, i64, ptr, ...) @H5E_printf_stack(ptr noundef nonnull @.str, ptr noundef nonnull @__func__.H5D__btree_shared_free, i32 noundef 748, i64 noundef %15, i64 noundef %16, ptr noundef nonnull @.str.23) #15
  br label %18

18:                                               ; preds = %14, %8, %1
  %.0 = phi i32 [ -1, %14 ], [ 0, %8 ], [ 0, %1 ]
  ret i32 %.0
}